; ModuleID = '1762.c'
source_filename = "1762.c"
target datalayout = "e-m:e-p270:32:32-p271:32:32-p272:64:64-i64:64-f80:128-n8:16:32:64-S128"
target triple = "x86_64-pc-linux-gnu"

@.str = private unnamed_addr constant [6 x i8] c"%s\0A%s\00", align 1

; Function Attrs: noinline nounwind uwtable
define dso_local i32 @main() #0 {
  %1 = alloca i32, align 4
  %2 = alloca [2000 x i8], align 16
  %3 = alloca [100 x [20 x i8]], align 16
  %4 = alloca i32, align 4
  %5 = alloca i32, align 4
  %6 = alloca i32, align 4
  %7 = alloca i8*, align 8
  %8 = alloca i8*, align 8
  store i32 0, i32* %1, align 4
  %9 = getelementptr inbounds [2000 x i8], [2000 x i8]* %2, i64 0, i64 0
  %10 = call i32 (i8*, ...) bitcast (i32 (...)* @gets to i32 (i8*, ...)*)(i8* %9)
  store i32 0, i32* %5, align 4
  store i32 0, i32* %6, align 4
  store i32 0, i32* %4, align 4
  br label %11

11:                                               ; preds = %48, %0
  %12 = load i32, i32* %4, align 4
  %13 = sext i32 %12 to i64
  %14 = getelementptr inbounds [2000 x i8], [2000 x i8]* %2, i64 0, i64 %13
  %15 = load i8, i8* %14, align 1
  %16 = sext i8 %15 to i32
  %17 = icmp ne i32 %16, 0
  br i1 %17, label %18, label %51

18:                                               ; preds = %11
  %19 = load i32, i32* %4, align 4
  %20 = sext i32 %19 to i64
  %21 = getelementptr inbounds [2000 x i8], [2000 x i8]* %2, i64 0, i64 %20
  %22 = load i8, i8* %21, align 1
  %23 = sext i8 %22 to i32
  %24 = icmp eq i32 %23, 32
  br i1 %24, label %25, label %34

25:                                               ; preds = %18
  %26 = load i32, i32* %5, align 4
  %27 = sext i32 %26 to i64
  %28 = getelementptr inbounds [100 x [20 x i8]], [100 x [20 x i8]]* %3, i64 0, i64 %27
  %29 = load i32, i32* %6, align 4
  %30 = sext i32 %29 to i64
  %31 = getelementptr inbounds [20 x i8], [20 x i8]* %28, i64 0, i64 %30
  store i8 0, i8* %31, align 1
  %32 = load i32, i32* %5, align 4
  %33 = add nsw i32 %32, 1
  store i32 %33, i32* %5, align 4
  store i32 0, i32* %6, align 4
  br label %47

34:                                               ; preds = %18
  %35 = load i32, i32* %4, align 4
  %36 = sext i32 %35 to i64
  %37 = getelementptr inbounds [2000 x i8], [2000 x i8]* %2, i64 0, i64 %36
  %38 = load i8, i8* %37, align 1
  %39 = load i32, i32* %5, align 4
  %40 = sext i32 %39 to i64
  %41 = getelementptr inbounds [100 x [20 x i8]], [100 x [20 x i8]]* %3, i64 0, i64 %40
  %42 = load i32, i32* %6, align 4
  %43 = sext i32 %42 to i64
  %44 = getelementptr inbounds [20 x i8], [20 x i8]* %41, i64 0, i64 %43
  store i8 %38, i8* %44, align 1
  %45 = load i32, i32* %6, align 4
  %46 = add nsw i32 %45, 1
  store i32 %46, i32* %6, align 4
  br label %47

47:                                               ; preds = %34, %25
  br label %48

48:                                               ; preds = %47
  %49 = load i32, i32* %4, align 4
  %50 = add nsw i32 %49, 1
  store i32 %50, i32* %4, align 4
  br label %11

51:                                               ; preds = %11
  %52 = load i32, i32* %5, align 4
  %53 = sext i32 %52 to i64
  %54 = getelementptr inbounds [100 x [20 x i8]], [100 x [20 x i8]]* %3, i64 0, i64 %53
  %55 = load i32, i32* %6, align 4
  %56 = sext i32 %55 to i64
  %57 = getelementptr inbounds [20 x i8], [20 x i8]* %54, i64 0, i64 %56
  store i8 0, i8* %57, align 1
  %58 = getelementptr inbounds [100 x [20 x i8]], [100 x [20 x i8]]* %3, i64 0, i64 0
  %59 = getelementptr inbounds [20 x i8], [20 x i8]* %58, i64 0, i64 0
  store i8* %59, i8** %7, align 8
  %60 = getelementptr inbounds [100 x [20 x i8]], [100 x [20 x i8]]* %3, i64 0, i64 0
  %61 = getelementptr inbounds [20 x i8], [20 x i8]* %60, i64 0, i64 0
  store i8* %61, i8** %8, align 8
  store i32 1, i32* %4, align 4
  br label %62

62:                                               ; preds = %101, %51
  %63 = load i32, i32* %4, align 4
  %64 = load i32, i32* %5, align 4
  %65 = icmp sle i32 %63, %64
  br i1 %65, label %66, label %104

66:                                               ; preds = %62
  %67 = load i32, i32* %4, align 4
  %68 = sext i32 %67 to i64
  %69 = getelementptr inbounds [100 x [20 x i8]], [100 x [20 x i8]]* %3, i64 0, i64 %68
  %70 = getelementptr inbounds [20 x i8], [20 x i8]* %69, i64 0, i64 0
  %71 = call i64 @strlen(i8* %70) #3
  %72 = load i8*, i8** %7, align 8
  %73 = call i64 @strlen(i8* %72) #3
  %74 = icmp ugt i64 %71, %73
  br i1 %74, label %75, label %80

75:                                               ; preds = %66
  %76 = load i32, i32* %4, align 4
  %77 = sext i32 %76 to i64
  %78 = getelementptr inbounds [100 x [20 x i8]], [100 x [20 x i8]]* %3, i64 0, i64 %77
  %79 = getelementptr inbounds [20 x i8], [20 x i8]* %78, i64 0, i64 0
  br label %82

80:                                               ; preds = %66
  %81 = load i8*, i8** %7, align 8
  br label %82

82:                                               ; preds = %80, %75
  %83 = phi i8* [ %79, %75 ], [ %81, %80 ]
  store i8* %83, i8** %7, align 8
  %84 = load i32, i32* %4, align 4
  %85 = sext i32 %84 to i64
  %86 = getelementptr inbounds [100 x [20 x i8]], [100 x [20 x i8]]* %3, i64 0, i64 %85
  %87 = getelementptr inbounds [20 x i8], [20 x i8]* %86, i64 0, i64 0
  %88 = call i64 @strlen(i8* %87) #3
  %89 = load i8*, i8** %8, align 8
  %90 = call i64 @strlen(i8* %89) #3
  %91 = icmp ult i64 %88, %90
  br i1 %91, label %92, label %97

92:                                               ; preds = %82
  %93 = load i32, i32* %4, align 4
  %94 = sext i32 %93 to i64
  %95 = getelementptr inbounds [100 x [20 x i8]], [100 x [20 x i8]]* %3, i64 0, i64 %94
  %96 = getelementptr inbounds [20 x i8], [20 x i8]* %95, i64 0, i64 0
  br label %99

97:                                               ; preds = %82
  %98 = load i8*, i8** %8, align 8
  br label %99

99:                                               ; preds = %97, %92
  %100 = phi i8* [ %96, %92 ], [ %98, %97 ]
  store i8* %100, i8** %8, align 8
  br label %101

101:                                              ; preds = %99
  %102 = load i32, i32* %4, align 4
  %103 = add nsw i32 %102, 1
  store i32 %103, i32* %4, align 4
  br label %62

104:                                              ; preds = %62
  %105 = load i8*, i8** %7, align 8
  %106 = load i8*, i8** %8, align 8
  %107 = call i32 (i8*, ...) @printf(i8* getelementptr inbounds ([6 x i8], [6 x i8]* @.str, i64 0, i64 0), i8* %105, i8* %106)
  ret i32 0
}

declare dso_local i32 @gets(...) #1

; Function Attrs: nounwind readonly
declare dso_local i64 @strlen(i8*) #2

declare dso_local i32 @printf(i8*, ...) #1


!llvm.module.flags = !{!0}
!llvm.ident = !{!1}

!0 = !{i32 1, !"wchar_size", i32 4}
!1 = !{!"clang version 10.0.0-4ubuntu1 "}
